target datalayout = "e-m:e-p270:32:32-p271:32:32-p272:64:64-i64:64-i128:128-f80:128-n8:16:32:64-S128"
target triple = "x86_64-pc-linux-gnu"

%class.btAlignedObjectArray = type <{ [4 x i8], i32, i32, [4 x i8], ptr, i8, [7 x i8] }>
%class.btAlignedObjectArray.2 = type <{ [4 x i8], i32, i32, [4 x i8], ptr, i8, [7 x i8] }>
%class.btAlignedObjectArray.4 = type <{ [4 x i8], i32, i32, [4 x i8], ptr, i8, [7 x i8] }>
%struct.btMultiBodyJacobianData = type <{ %class.btAlignedObjectArray, %class.btAlignedObjectArray, %class.btAlignedObjectArray, %class.btAlignedObjectArray, %class.btAlignedObjectArray.2, %class.btAlignedObjectArray.4, ptr, i32, [4 x i8] }>

; Function Attrs: inlinehint mustprogress nounwind uwtable
define linkonce_odr dso_local noundef nonnull align 4 dereferenceable(4) ptr @_ZN20btAlignedObjectArrayIfEixEi(ptr noundef nonnull align 8 dereferenceable(25) %0, i32 noundef %1) #6 comdat align 2 {
  %3 = alloca ptr, align 8
  %4 = alloca i32, align 4
  store ptr %0, ptr %3, align 8, !tbaa !38
  store i32 %1, ptr %4, align 4, !tbaa !9
  %5 = load ptr, ptr %3, align 8
  %6 = getelementptr inbounds nuw %class.btAlignedObjectArray, ptr %5, i32 0, i32 4
  %7 = load ptr, ptr %6, align 8, !tbaa !62
  %8 = load i32, ptr %4, align 4, !tbaa !9
  %9 = sext i32 %8 to i64
  %10 = getelementptr inbounds float, ptr %7, i64 %9
  ret ptr %10
}

; Function Attrs: mustprogress uwtable
define dso_local void @_ZN21btMultiBodyConstraint13applyDeltaVeeER23btMultiBodyJacobianDataPffii(ptr noundef nonnull align 8 dereferenceable(96) %0, ptr noundef nonnull align 8 dereferenceable(204) %1, ptr noundef %2, float noundef %3, i32 noundef %4, i32 noundef %5) #2 align 2 {
  %7 = alloca ptr, align 8
  %8 = alloca ptr, align 8
  %9 = alloca ptr, align 8
  %10 = alloca float, align 4
  %11 = alloca i32, align 4
  %12 = alloca i32, align 4
  %13 = alloca i32, align 4
  store ptr %0, ptr %7, align 8, !tbaa !12
  store ptr %1, ptr %8, align 8, !tbaa !65
  store ptr %2, ptr %9, align 8, !tbaa !59
  store float %3, ptr %10, align 4, !tbaa !58
  store i32 %4, ptr %11, align 4, !tbaa !9
  store i32 %5, ptr %12, align 4, !tbaa !9
  call void @llvm.lifetime.start.p0(i64 4, ptr %13) #12
  store i32 0, ptr %13, align 4, !tbaa !9
  br label %14

14:                                               ; preds = %34, %6
  %15 = load i32, ptr %13, align 4, !tbaa !9
  %16 = load i32, ptr %12, align 4, !tbaa !9
  %17 = icmp slt i32 %15, %16
  br i1 %17, label %19, label %18

18:                                               ; preds = %14
  call void @llvm.lifetime.end.p0(i64 4, ptr %13) #12
  br label %37

19:                                               ; preds = %14
  %20 = load ptr, ptr %9, align 8, !tbaa !59
  %21 = load i32, ptr %13, align 4, !tbaa !9
  %22 = sext i32 %21 to i64
  %23 = getelementptr inbounds float, ptr %20, i64 %22
  %24 = load float, ptr %23, align 4, !tbaa !58
  %25 = load float, ptr %10, align 4, !tbaa !58
  %26 = load ptr, ptr %8, align 8, !tbaa !65
  %27 = getelementptr inbounds nuw %struct.btMultiBodyJacobianData, ptr %26, i32 0, i32 2
  %28 = load i32, ptr %11, align 4, !tbaa !9
  %29 = load i32, ptr %13, align 4, !tbaa !9
  %30 = add nsw i32 %28, %29
  %31 = call noundef nonnull align 4 dereferenceable(4) ptr @_ZN20btAlignedObjectArrayIfEixEi(ptr noundef nonnull align 8 dereferenceable(25) %27, i32 noundef %30)
  %32 = load float, ptr %31, align 4, !tbaa !58
  %33 = call float @llvm.fmuladd.f32(float %24, float %25, float %32)
  store float %33, ptr %31, align 4, !tbaa !58
  br label %34

34:                                               ; preds = %19
  %35 = load i32, ptr %13, align 4, !tbaa !9
  %36 = add nsw i32 %35, 1
  store i32 %36, ptr %13, align 4, !tbaa !9
  br label %14, !llvm.loop !67

37:                                               ; preds = %18
  ret void
}