; Function Attrs: mustprogress nofree norecurse nosync nounwind memory(readwrite, inaccessiblemem: none) uwtable
define dso_local void @_ZN21btMultiBodyConstraint13applyDeltaVeeER23btMultiBodyJacobianDataPffii(ptr noundef nonnull readnone align 8 captures(none) dereferenceable(96) %0, ptr noundef nonnull readonly align 8 captures(none) dereferenceable(204) %1, ptr noundef readonly captures(none) %2, float noundef %3, i32 noundef %4, i32 noundef %5) local_unnamed_addr #7 align 2 {
  %7 = icmp sgt i32 %5, 0
  br i1 %7, label %.lr.ph, label %._crit_edge

.lr.ph:                                           ; preds = %6
  %8 = getelementptr inbounds nuw i8, ptr %1, i64 80
  %9 = load ptr, ptr %8, align 8, !tbaa !29
  %10 = sext i32 %4 to i64
  %wide.trip.count = zext nneg i32 %5 to i64
  %invariant.gep = getelementptr float, ptr %9, i64 %10
  br label %11

._crit_edge:                                      ; preds = %11, %6
  ret void

11:                                               ; preds = %.lr.ph, %11
  %indvars.iv = phi i64 [ 0, %.lr.ph ], [ %indvars.iv.next, %11 ]
  %12 = getelementptr inbounds nuw float, ptr %2, i64 %indvars.iv
  %13 = load float, ptr %12, align 4, !tbaa !50
  %gep = getelementptr float, ptr %invariant.gep, i64 %indvars.iv
  %14 = load float, ptr %gep, align 4, !tbaa !50
  %15 = tail call float @llvm.fmuladd.f32(float %13, float %3, float %14)
  store float %15, ptr %gep, align 4, !tbaa !50
  %indvars.iv.next = add nuw nsw i64 %indvars.iv, 1
  %exitcond.not = icmp eq i64 %indvars.iv.next, %wide.trip.count
  br i1 %exitcond.not, label %._crit_edge, label %11, !llvm.loop !55
}